target datalayout = "e-m:e-p270:32:32-p271:32:32-p272:64:64-i64:64-i128:128-f80:128-n8:16:32:64-S128"
target triple = "x86_64-pc-linux-gnu"

%struct.raxIterator = type { i32, ptr, ptr, ptr, i64, i64, [128 x i8], ptr, %struct.raxStack, ptr }
%struct.raxStack = type { ptr, i64, i64, [32 x ptr], i32 }
%struct.RedisModuleDictIter = type { ptr, %struct.raxIterator }

; Function Attrs: nounwind uwtable
define dso_local ptr @RM_DictNextC(ptr noundef %0, ptr noundef %1, ptr noundef %2) #0 {
  %4 = alloca ptr, align 8
  %5 = alloca ptr, align 8
  %6 = alloca ptr, align 8
  %7 = alloca ptr, align 8
  store ptr %0, ptr %5, align 8, !tbaa !647
  store ptr %1, ptr %6, align 8, !tbaa !197
  store ptr %2, ptr %7, align 8, !tbaa !9
  %8 = load ptr, ptr %5, align 8, !tbaa !647
  %9 = getelementptr inbounds nuw %struct.RedisModuleDictIter, ptr %8, i32 0, i32 1
  %10 = call i32 @raxNext(ptr noundef %9)
  %11 = icmp ne i32 %10, 0
  br i1 %11, label %13, label %12

12:                                               ; preds = %3
  store ptr null, ptr %4, align 8
  br label %36

13:                                               ; preds = %3
  %14 = load ptr, ptr %6, align 8, !tbaa !197
  %15 = icmp ne ptr %14, null
  br i1 %15, label %16, label %22

16:                                               ; preds = %13
  %17 = load ptr, ptr %5, align 8, !tbaa !647
  %18 = getelementptr inbounds nuw %struct.RedisModuleDictIter, ptr %17, i32 0, i32 1
  %19 = getelementptr inbounds nuw %struct.raxIterator, ptr %18, i32 0, i32 4
  %20 = load i64, ptr %19, align 8, !tbaa !651
  %21 = load ptr, ptr %6, align 8, !tbaa !197
  store i64 %20, ptr %21, align 8, !tbaa !5
  br label %22

22:                                               ; preds = %16, %13
  %23 = load ptr, ptr %7, align 8, !tbaa !9
  %24 = icmp ne ptr %23, null
  br i1 %24, label %25, label %31

25:                                               ; preds = %22
  %26 = load ptr, ptr %5, align 8, !tbaa !647
  %27 = getelementptr inbounds nuw %struct.RedisModuleDictIter, ptr %26, i32 0, i32 1
  %28 = getelementptr inbounds nuw %struct.raxIterator, ptr %27, i32 0, i32 3
  %29 = load ptr, ptr %28, align 8, !tbaa !652
  %30 = load ptr, ptr %7, align 8, !tbaa !9
  store ptr %29, ptr %30, align 8, !tbaa !9
  br label %31

31:                                               ; preds = %25, %22
  %32 = load ptr, ptr %5, align 8, !tbaa !647
  %33 = getelementptr inbounds nuw %struct.RedisModuleDictIter, ptr %32, i32 0, i32 1
  %34 = getelementptr inbounds nuw %struct.raxIterator, ptr %33, i32 0, i32 2
  %35 = load ptr, ptr %34, align 8, !tbaa !653
  store ptr %35, ptr %4, align 8
  br label %36

36:                                               ; preds = %31, %12
  %37 = load ptr, ptr %4, align 8
  ret ptr %37
}