; Function Attrs: nounwind uwtable
define dso_local ptr @RM_DictNextC(ptr noundef %0, ptr noundef writeonly captures(address_is_null) %1, ptr noundef writeonly captures(address_is_null) %2) #0 {
  %4 = getelementptr inbounds nuw i8, ptr %0, i64 8
  %5 = tail call i32 @raxNext(ptr noundef nonnull %4) #35
  %.not = icmp eq i32 %5, 0
  br i1 %.not, label %17, label %6

6:                                                ; preds = %3
  %.not11 = icmp eq ptr %1, null
  br i1 %.not11, label %10, label %7

7:                                                ; preds = %6
  %8 = getelementptr inbounds nuw i8, ptr %0, i64 40
  %9 = load i64, ptr %8, align 8, !tbaa !552
  store i64 %9, ptr %1, align 8, !tbaa !24
  br label %10

10:                                               ; preds = %7, %6
  %.not12 = icmp eq ptr %2, null
  br i1 %.not12, label %14, label %11

11:                                               ; preds = %10
  %12 = getelementptr inbounds nuw i8, ptr %0, i64 32
  %13 = load ptr, ptr %12, align 8, !tbaa !553
  store ptr %13, ptr %2, align 8, !tbaa !83
  br label %14

14:                                               ; preds = %11, %10
  %15 = getelementptr inbounds nuw i8, ptr %0, i64 24
  %16 = load ptr, ptr %15, align 8, !tbaa !554
  br label %17

17:                                               ; preds = %3, %14
  %.0 = phi ptr [ %16, %14 ], [ null, %3 ]
  ret ptr %.0
}